target datalayout = "e-m:e-p270:32:32-p271:32:32-p272:64:64-i64:64-i128:128-f80:128-n8:16:32:64-S128"
target triple = "x86_64-pc-linux-gnu"

%struct.Gia_Man_t_ = type { ptr, ptr, i32, i32, i32, i32, ptr, ptr, i32, i32, i32, ptr, ptr, %struct.Vec_Int_t_, %struct.Vec_Int_t_, i32, i32, i32, %struct.Vec_Int_t_, ptr, ptr, ptr, i32, i32, i32, i32, ptr, ptr, ptr, ptr, ptr, i32, i32, ptr, i32, ptr, ptr, ptr, ptr, ptr, ptr, ptr, ptr, ptr, ptr, ptr, ptr, ptr, ptr, ptr, ptr, ptr, ptr, %struct.Vec_Int_t_, %struct.Vec_Int_t_, ptr, ptr, ptr, ptr, ptr, ptr, ptr, ptr, ptr, ptr, ptr, ptr, ptr, ptr, ptr, ptr, ptr, ptr, ptr, ptr, ptr, i32, float, float, ptr, ptr, i32, ptr, ptr, ptr, ptr, ptr, ptr, ptr, ptr, ptr, ptr, ptr, ptr, ptr, ptr, ptr, i64, i64, ptr, ptr, i32, i32, i32, i32, i32, i32, i32, i32, i32, i32, i32, i32, ptr, ptr, ptr, ptr, ptr, ptr, ptr, ptr, i32, i32, i32, ptr, i32, i32, ptr, ptr, ptr, ptr, ptr, ptr, i32, i32, ptr, %struct.Vec_Int_t_, %struct.Vec_Int_t_, %struct.Vec_Int_t_, ptr, ptr, ptr, i32, i32, i32, i32, ptr, ptr, ptr, ptr, ptr }
%struct.Vec_Int_t_ = type { i32, i32, ptr }
%struct.Cec_ParChc_t_ = type { i32, i32, i32, i32, i32, i32, i32 }
%struct.Dch_Pars_t_ = type { i32, i32, i32, i32, i32, i32, i32, i32, i32, i32, i32, i32, i32, i32, i64, i32, i32 }

@.str.7 = private unnamed_addr constant [15 x i8] c"Synthesis time\00", align 1
@.str.12 = private unnamed_addr constant [5 x i8] c"%s =\00", align 1
@.str.14 = private unnamed_addr constant [11 x i8] c"%9.2f sec\0A\00", align 1

; Function Attrs: inlinehint nounwind uwtable
define internal i32 @Gia_ManRegNum(ptr noundef %0) #3 {
  %2 = alloca ptr, align 8
  store ptr %0, ptr %2, align 8, !tbaa !3
  %3 = load ptr, ptr %2, align 8, !tbaa !3
  %4 = getelementptr inbounds nuw %struct.Gia_Man_t_, ptr %3, i32 0, i32 2
  %5 = load i32, ptr %4, align 8, !tbaa !95
  ret i32 %5
}

; Function Attrs: nounwind uwtable
define ptr @Cec_ManChoiceComputationVec(ptr noundef %0, i32 noundef %1, ptr noundef %2) #0 {
  %4 = alloca ptr, align 8
  %5 = alloca i32, align 4
  %6 = alloca ptr, align 8
  %7 = alloca ptr, align 8
  %8 = alloca i32, align 4
  store ptr %0, ptr %4, align 8, !tbaa !3
  store i32 %1, ptr %5, align 4, !tbaa !10
  store ptr %2, ptr %6, align 8, !tbaa !54
  call void @llvm.lifetime.start.p0(i64 8, ptr %7) #11
  call void @llvm.lifetime.start.p0(i64 4, ptr %8) #11
  %9 = load ptr, ptr %4, align 8, !tbaa !3
  %10 = load ptr, ptr %6, align 8, !tbaa !54
  %11 = call i32 @Cec_ManChoiceComputation_int(ptr noundef %9, ptr noundef %10)
  store i32 %11, ptr %8, align 4, !tbaa !10
  %12 = load ptr, ptr %4, align 8, !tbaa !3
  %13 = load i32, ptr %5, align 4, !tbaa !10
  %14 = call ptr @Gia_ManEquivToChoices(ptr noundef %12, i32 noundef %13)
  store ptr %14, ptr %7, align 8, !tbaa !3
  %15 = load ptr, ptr %6, align 8, !tbaa !54
  %16 = getelementptr inbounds nuw %struct.Cec_ParChc_t_, ptr %15, i32 0, i32 6
  %17 = load i32, ptr %16, align 4, !tbaa !67
  %18 = icmp ne i32 %17, 0
  br i1 %18, label %19, label %20

19:                                               ; preds = %3
  br label %20

20:                                               ; preds = %19, %3
  %21 = load ptr, ptr %7, align 8, !tbaa !3
  call void @llvm.lifetime.end.p0(i64 4, ptr %8) #11
  call void @llvm.lifetime.end.p0(i64 8, ptr %7) #11
  ret ptr %21
}

; Function Attrs: inlinehint nounwind uwtable
define internal void @Abc_PrintTime(i32 noundef %0, ptr noundef %1, i64 noundef %2) #3 {
  %4 = alloca i32, align 4
  %5 = alloca ptr, align 8
  %6 = alloca i64, align 8
  store i32 %0, ptr %4, align 4, !tbaa !10
  store ptr %1, ptr %5, align 8, !tbaa !45
  store i64 %2, ptr %6, align 8, !tbaa !60
  %7 = load ptr, ptr %5, align 8, !tbaa !45
  call void (i32, ptr, ...) @Abc_Print(i32 noundef 1, ptr noundef @.str.12, ptr noundef %7)
  %8 = load i64, ptr %6, align 8, !tbaa !60
  %9 = sitofp i64 %8 to double
  %10 = fmul double 1.000000e+00, %9
  %11 = fdiv double %10, 1.000000e+06
  call void (i32, ptr, ...) @Abc_Print(i32 noundef 1, ptr noundef @.str.14, double noundef %11)
  ret void
}

; Function Attrs: nounwind uwtable
define ptr @Cec_ComputeChoices(ptr noundef %0, ptr noundef %1) #0 {
  %3 = alloca ptr, align 8
  %4 = alloca ptr, align 8
  %5 = alloca %struct.Cec_ParChc_t_, align 4
  %6 = alloca ptr, align 8
  %7 = alloca ptr, align 8
  store ptr %0, ptr %3, align 8, !tbaa !3
  store ptr %1, ptr %4, align 8, !tbaa !85
  call void @llvm.lifetime.start.p0(i64 28, ptr %5) #11
  call void @llvm.lifetime.start.p0(i64 8, ptr %6) #11
  store ptr %5, ptr %6, align 8, !tbaa !54
  call void @llvm.lifetime.start.p0(i64 8, ptr %7) #11
  %8 = load ptr, ptr %4, align 8, !tbaa !85
  %9 = getelementptr inbounds nuw %struct.Dch_Pars_t_, ptr %8, i32 0, i32 13
  %10 = load i32, ptr %9, align 4, !tbaa !93
  %11 = icmp ne i32 %10, 0
  br i1 %11, label %12, label %16

12:                                               ; preds = %2
  %13 = load ptr, ptr %4, align 8, !tbaa !85
  %14 = getelementptr inbounds nuw %struct.Dch_Pars_t_, ptr %13, i32 0, i32 14
  %15 = load i64, ptr %14, align 8, !tbaa !94
  call void @Abc_PrintTime(i32 noundef 1, ptr noundef @.str.7, i64 noundef %15)
  br label %16

16:                                               ; preds = %12, %2
  %17 = load ptr, ptr %6, align 8, !tbaa !54
  call void @Cec_ManChcSetDefaultParams(ptr noundef %17)
  %18 = load ptr, ptr %4, align 8, !tbaa !85
  %19 = getelementptr inbounds nuw %struct.Dch_Pars_t_, ptr %18, i32 0, i32 1
  %20 = load i32, ptr %19, align 4, !tbaa !91
  %21 = load ptr, ptr %6, align 8, !tbaa !54
  %22 = getelementptr inbounds nuw %struct.Cec_ParChc_t_, ptr %21, i32 0, i32 2
  store i32 %20, ptr %22, align 4, !tbaa !73
  %23 = load ptr, ptr %4, align 8, !tbaa !85
  %24 = getelementptr inbounds nuw %struct.Dch_Pars_t_, ptr %23, i32 0, i32 8
  %25 = load i32, ptr %24, align 8, !tbaa !92
  %26 = load ptr, ptr %6, align 8, !tbaa !54
  %27 = getelementptr inbounds nuw %struct.Cec_ParChc_t_, ptr %26, i32 0, i32 4
  store i32 %25, ptr %27, align 4, !tbaa !78
  %28 = load ptr, ptr %6, align 8, !tbaa !54
  %29 = getelementptr inbounds nuw %struct.Cec_ParChc_t_, ptr %28, i32 0, i32 4
  %30 = load i32, ptr %29, align 4, !tbaa !78
  %31 = icmp ne i32 %30, 0
  br i1 %31, label %32, label %40

32:                                               ; preds = %16
  %33 = load ptr, ptr %6, align 8, !tbaa !54
  %34 = getelementptr inbounds nuw %struct.Cec_ParChc_t_, ptr %33, i32 0, i32 2
  %35 = load i32, ptr %34, align 4, !tbaa !73
  %36 = icmp sgt i32 %35, 100
  br i1 %36, label %37, label %40

37:                                               ; preds = %32
  %38 = load ptr, ptr %6, align 8, !tbaa !54
  %39 = getelementptr inbounds nuw %struct.Cec_ParChc_t_, ptr %38, i32 0, i32 2
  store i32 100, ptr %39, align 4, !tbaa !73
  br label %40

40:                                               ; preds = %37, %32, %16
  %41 = load ptr, ptr %4, align 8, !tbaa !85
  %42 = getelementptr inbounds nuw %struct.Dch_Pars_t_, ptr %41, i32 0, i32 13
  %43 = load i32, ptr %42, align 4, !tbaa !93
  %44 = load ptr, ptr %6, align 8, !tbaa !54
  %45 = getelementptr inbounds nuw %struct.Cec_ParChc_t_, ptr %44, i32 0, i32 6
  store i32 %43, ptr %45, align 4, !tbaa !67
  %46 = load ptr, ptr %3, align 8, !tbaa !3
  %47 = load ptr, ptr %6, align 8, !tbaa !54
  %48 = call ptr @Cec_ManChoiceComputationVec(ptr noundef %46, i32 noundef 3, ptr noundef %47)
  store ptr %48, ptr %3, align 8, !tbaa !3
  %49 = load ptr, ptr %3, align 8, !tbaa !3
  %50 = load ptr, ptr %3, align 8, !tbaa !3
  %51 = call i32 @Gia_ManRegNum(ptr noundef %50)
  call void @Gia_ManSetRegNum(ptr noundef %49, i32 noundef %51)
  %52 = load ptr, ptr %3, align 8, !tbaa !3
  %53 = call ptr @Gia_ManToAig(ptr noundef %52, i32 noundef 1)
  store ptr %53, ptr %7, align 8, !tbaa !87
  %54 = load ptr, ptr %3, align 8, !tbaa !3
  call void @Gia_ManStop(ptr noundef %54)
  %55 = load ptr, ptr %7, align 8, !tbaa !87
  call void @llvm.lifetime.end.p0(i64 8, ptr %7) #11
  call void @llvm.lifetime.end.p0(i64 8, ptr %6) #11
  call void @llvm.lifetime.end.p0(i64 28, ptr %5) #11
  ret ptr %55
}