; Function Attrs: nounwind uwtable
define ptr @Cec_ComputeChoices(ptr noundef %0, ptr noundef readonly captures(none) %1) local_unnamed_addr #0 {
  %3 = alloca %struct.Cec_ParChc_t_, align 4
  call void @llvm.lifetime.start.p0(i64 28, ptr nonnull %3) #16
  %4 = getelementptr inbounds nuw i8, ptr %1, i64 52
  %5 = load i32, ptr %4, align 4, !tbaa !81
  %.not = icmp eq i32 %5, 0
  br i1 %.not, label %11, label %6

6:                                                ; preds = %2
  %7 = getelementptr inbounds nuw i8, ptr %1, i64 56
  %8 = load i64, ptr %7, align 8, !tbaa !82
  tail call void (i32, ptr, ...) @Abc_Print(i32 poison, ptr noundef nonnull @.str.12, ptr noundef nonnull @.str.7)
  %9 = sitofp i64 %8 to double
  %10 = fdiv double %9, 1.000000e+06
  tail call void (i32, ptr, ...) @Abc_Print(i32 poison, ptr noundef nonnull @.str.14, double noundef %10)
  br label %11

11:                                               ; preds = %6, %2
  call void @Cec_ManChcSetDefaultParams(ptr noundef nonnull %3) #16
  %12 = getelementptr inbounds nuw i8, ptr %1, i64 4
  %13 = load i32, ptr %12, align 4, !tbaa !79
  %14 = getelementptr inbounds nuw i8, ptr %3, i64 8
  store i32 %13, ptr %14, align 4, !tbaa !62
  %15 = getelementptr inbounds nuw i8, ptr %1, i64 32
  %16 = load i32, ptr %15, align 8, !tbaa !80
  %17 = getelementptr inbounds nuw i8, ptr %3, i64 16
  store i32 %16, ptr %17, align 4, !tbaa !67
  %.not19 = icmp ne i32 %16, 0
  %18 = icmp sgt i32 %13, 100
  %or.cond = select i1 %.not19, i1 %18, i1 false
  br i1 %or.cond, label %19, label %20

19:                                               ; preds = %11
  store i32 100, ptr %14, align 4, !tbaa !62
  br label %20

20:                                               ; preds = %19, %11
  %21 = load i32, ptr %4, align 4, !tbaa !81
  %22 = getelementptr inbounds nuw i8, ptr %3, i64 24
  store i32 %21, ptr %22, align 4, !tbaa !58
  %23 = call i32 @Cec_ManChoiceComputation_int(ptr noundef %0, ptr noundef nonnull readonly %3)
  %24 = call ptr @Gia_ManEquivToChoices(ptr noundef %0, i32 noundef 3) #16
  %25 = getelementptr i8, ptr %24, i64 16
  %.val = load i32, ptr %25, align 8, !tbaa !83
  call void @Gia_ManSetRegNum(ptr noundef %24, i32 noundef %.val) #16
  %26 = call ptr @Gia_ManToAig(ptr noundef %24, i32 noundef 1) #16
  call void @Gia_ManStop(ptr noundef %24) #16
  call void @llvm.lifetime.end.p0(i64 28, ptr nonnull %3) #16
  ret ptr %26
}